target datalayout = "e-m:e-p270:32:32-p271:32:32-p272:64:64-i64:64-i128:128-f80:128-n8:16:32:64-S128"
target triple = "x86_64-pc-linux-gnu"

%"class.grpc_core::StringMatcher" = type <{ i32, [4 x i8], %"class.std::__cxx11::basic_string", %"class.std::unique_ptr", i8, [7 x i8] }>
%"class.std::__cxx11::basic_string" = type { %"struct.std::__cxx11::basic_string<char>::_Alloc_hider", i64, %union.anon.1 }
%"struct.std::__cxx11::basic_string<char>::_Alloc_hider" = type { ptr }
%union.anon.1 = type { i64, [8 x i8] }
%"class.std::unique_ptr" = type { %"struct.std::__uniq_ptr_data" }
%"struct.std::__uniq_ptr_data" = type { %"class.std::__uniq_ptr_impl" }
%"class.std::__uniq_ptr_impl" = type { %"class.std::tuple" }
%"class.std::tuple" = type { %"struct.std::_Tuple_impl" }
%"struct.std::_Tuple_impl" = type { %"struct.std::_Head_base.3" }
%"struct.std::_Head_base.3" = type { ptr }
%"class.std::basic_string_view" = type { i64, ptr }
%"class.grpc_core::HeaderMatcher" = type <{ %"class.std::__cxx11::basic_string", i32, [4 x i8], %"class.grpc_core::StringMatcher", i64, i64, i8, i8, [6 x i8] }>
%"struct.std::_Optional_base" = type { %"struct.std::_Optional_payload" }
%"struct.std::_Optional_payload" = type { %"struct.std::_Optional_payload_base.base", [7 x i8] }
%"struct.std::_Optional_payload_base.base" = type <{ %"union.std::_Optional_payload_base<std::basic_string_view<char>>::_Storage", i8 }>
%"union.std::_Optional_payload_base<std::basic_string_view<char>>::_Storage" = type { %"class.std::basic_string_view" }
%"struct.std::_Optional_payload_base" = type <{ %"union.std::_Optional_payload_base<std::basic_string_view<char>>::_Storage", i8, [7 x i8] }>

@_ZTISt19bad_optional_access = linkonce_odr constant { ptr, ptr, ptr } { ptr getelementptr inbounds (ptr, ptr @_ZTVN10__cxxabiv120__si_class_type_infoE, i64 2), ptr @_ZTSSt19bad_optional_access, ptr @_ZTISt9exception }, comdat, align 8
@_ZTVSt19bad_optional_access = linkonce_odr unnamed_addr constant { [5 x ptr] } { [5 x ptr] [ptr null, ptr @_ZTISt19bad_optional_access, ptr @_ZNSt9exceptionD2Ev, ptr @_ZNSt19bad_optional_accessD0Ev, ptr @_ZNKSt19bad_optional_access4whatEv] }, comdat, align 8
@_ZTVSt9exception = available_externally unnamed_addr constant { [5 x ptr] } { [5 x ptr] [ptr null, ptr @_ZTISt9exception, ptr @_ZNSt9exceptionD1Ev, ptr @_ZNSt9exceptionD0Ev, ptr @_ZNKSt9exception4whatEv] }, align 8

; Function Attrs: mustprogress nounwind uwtable
define linkonce_odr void @_ZNSt9exceptionC2Ev(ptr noundef nonnull align 8 dereferenceable(8) %0) unnamed_addr #7 comdat align 2 {
  %2 = alloca ptr, align 8
  store ptr %0, ptr %2, align 8, !tbaa !144
  %3 = load ptr, ptr %2, align 8
  store ptr getelementptr inbounds inrange(-16, 24) ({ [5 x ptr] }, ptr @_ZTVSt9exception, i32 0, i32 0, i32 2), ptr %3, align 8, !tbaa !142
  ret void
}

; Function Attrs: mustprogress nounwind uwtable
define linkonce_odr void @_ZNSt19bad_optional_accessC2Ev(ptr noundef nonnull align 8 dereferenceable(8) %0) unnamed_addr #7 comdat align 2 {
  %2 = alloca ptr, align 8
  store ptr %0, ptr %2, align 8, !tbaa !140
  %3 = load ptr, ptr %2, align 8
  call void @_ZNSt9exceptionC2Ev(ptr noundef nonnull align 8 dereferenceable(8) %3) #3
  store ptr getelementptr inbounds inrange(-16, 24) ({ [5 x ptr] }, ptr @_ZTVSt19bad_optional_access, i32 0, i32 0, i32 2), ptr %3, align 8, !tbaa !142
  ret void
}

; Function Attrs: mustprogress nounwind uwtable
define linkonce_odr noundef nonnull align 8 dereferenceable(16) ptr @_ZNKSt22_Optional_payload_baseISt17basic_string_viewIcSt11char_traitsIcEEE6_M_getEv(ptr noundef nonnull align 8 dereferenceable(17) %0) #7 comdat align 2 {
  %2 = alloca ptr, align 8
  store ptr %0, ptr %2, align 8, !tbaa !138
  %3 = load ptr, ptr %2, align 8
  %4 = getelementptr inbounds nuw %"struct.std::_Optional_payload_base", ptr %3, i32 0, i32 0
  ret ptr %4
}

; Function Attrs: mustprogress uwtable
define linkonce_odr noundef zeroext i1 @_ZN4absl12lts_2024072216numbers_internal16safe_strtoi_baseIlEEbSt17basic_string_viewIcSt11char_traitsIcEEPT_i(i64 %0, ptr %1, ptr noundef %2, i32 noundef %3) #4 comdat {
  %5 = alloca %"class.std::basic_string_view", align 8
  %6 = alloca ptr, align 8
  %7 = alloca i32, align 4
  %8 = alloca i8, align 1
  %9 = alloca i8, align 1
  %10 = alloca i8, align 1
  %11 = alloca i64, align 8
  %12 = alloca %"class.std::basic_string_view", align 8
  %13 = getelementptr inbounds nuw { i64, ptr }, ptr %5, i32 0, i32 0
  store i64 %0, ptr %13, align 8
  %14 = getelementptr inbounds nuw { i64, ptr }, ptr %5, i32 0, i32 1
  store ptr %1, ptr %14, align 8
  store ptr %2, ptr %6, align 8, !tbaa !100
  store i32 %3, ptr %7, align 4, !tbaa !127
  call void @llvm.lifetime.start.p0(i64 1, ptr %8) #3
  call void @llvm.lifetime.start.p0(i64 1, ptr %9) #3
  store i8 1, ptr %9, align 1, !tbaa !7
  call void @llvm.lifetime.start.p0(i64 1, ptr %10) #3
  store i8 1, ptr %10, align 1, !tbaa !7
  call void @llvm.lifetime.start.p0(i64 8, ptr %11) #3
  call void @llvm.memcpy.p0.p0.i64(ptr align 8 %12, ptr align 8 %5, i64 16, i1 false), !tbaa.struct !9
  %15 = load i32, ptr %7, align 4, !tbaa !127
  %16 = getelementptr inbounds nuw { i64, ptr }, ptr %12, i32 0, i32 0
  %17 = load i64, ptr %16, align 8
  %18 = getelementptr inbounds nuw { i64, ptr }, ptr %12, i32 0, i32 1
  %19 = load ptr, ptr %18, align 8
  %20 = call noundef zeroext i1 @_ZN4absl12lts_2024072216numbers_internal17safe_strto64_baseESt17basic_string_viewIcSt11char_traitsIcEEPli(i64 %17, ptr %19, ptr noundef %11, i32 noundef %15)
  %21 = zext i1 %20 to i8
  store i8 %21, ptr %8, align 1, !tbaa !7
  %22 = load i64, ptr %11, align 8, !tbaa !10
  %23 = load ptr, ptr %6, align 8, !tbaa !100
  store i64 %22, ptr %23, align 8, !tbaa !10
  call void @llvm.lifetime.end.p0(i64 8, ptr %11) #3
  %24 = load i8, ptr %8, align 1, !tbaa !7, !range !15, !noundef !16
  %25 = trunc i8 %24 to i1
  call void @llvm.lifetime.end.p0(i64 1, ptr %10) #3
  call void @llvm.lifetime.end.p0(i64 1, ptr %9) #3
  call void @llvm.lifetime.end.p0(i64 1, ptr %8) #3
  ret i1 %25
}

; Function Attrs: inlinehint mustprogress noreturn uwtable
define linkonce_odr void @_ZSt27__throw_bad_optional_accessv() #13 comdat {
  %1 = call ptr @__cxa_allocate_exception(i64 8) #3
  call void @llvm.memset.p0.i64(ptr align 16 %1, i8 0, i64 8, i1 false)
  call void @_ZNSt19bad_optional_accessC2Ev(ptr noundef nonnull align 8 dereferenceable(8) %1) #3
  call void @__cxa_throw(ptr %1, ptr @_ZTISt19bad_optional_access, ptr @_ZNSt9exceptionD2Ev) #22
  unreachable
}

; Function Attrs: mustprogress nounwind uwtable
define linkonce_odr noundef nonnull align 8 dereferenceable(16) ptr @_ZNKSt19_Optional_base_implISt17basic_string_viewIcSt11char_traitsIcEESt14_Optional_baseIS3_Lb1ELb1EEE6_M_getEv(ptr noundef nonnull align 1 dereferenceable(1) %0) #7 comdat align 2 {
  %2 = alloca ptr, align 8
  store ptr %0, ptr %2, align 8, !tbaa !134
  %3 = load ptr, ptr %2, align 8
  br label %4

4:                                                ; preds = %1
  br label %5

5:                                                ; preds = %4
  br label %6

6:                                                ; preds = %5
  %7 = getelementptr inbounds nuw %"struct.std::_Optional_base", ptr %3, i32 0, i32 0
  %8 = call noundef nonnull align 8 dereferenceable(16) ptr @_ZNKSt22_Optional_payload_baseISt17basic_string_viewIcSt11char_traitsIcEEE6_M_getEv(ptr noundef nonnull align 8 dereferenceable(17) %7) #3
  ret ptr %8
}

; Function Attrs: mustprogress nounwind uwtable
define linkonce_odr noundef zeroext i1 @_ZNKSt19_Optional_base_implISt17basic_string_viewIcSt11char_traitsIcEESt14_Optional_baseIS3_Lb1ELb1EEE13_M_is_engagedEv(ptr noundef nonnull align 1 dereferenceable(1) %0) #7 comdat align 2 {
  %2 = alloca ptr, align 8
  store ptr %0, ptr %2, align 8, !tbaa !134
  %3 = load ptr, ptr %2, align 8
  %4 = getelementptr inbounds nuw %"struct.std::_Optional_base", ptr %3, i32 0, i32 0
  %5 = getelementptr inbounds nuw %"struct.std::_Optional_payload_base", ptr %4, i32 0, i32 1
  %6 = load i8, ptr %5, align 8, !tbaa !136, !range !15, !noundef !16
  %7 = trunc i8 %6 to i1
  ret i1 %7
}

; Function Attrs: mustprogress uwtable
define linkonce_odr noundef zeroext i1 @_ZN4absl12lts_2024072210SimpleAtoiIlEEbSt17basic_string_viewIcSt11char_traitsIcEEPT_(i64 %0, ptr %1, ptr noundef %2) #4 comdat {
  %4 = alloca %"class.std::basic_string_view", align 8
  %5 = alloca ptr, align 8
  %6 = alloca %"class.std::basic_string_view", align 8
  %7 = getelementptr inbounds nuw { i64, ptr }, ptr %4, i32 0, i32 0
  store i64 %0, ptr %7, align 8
  %8 = getelementptr inbounds nuw { i64, ptr }, ptr %4, i32 0, i32 1
  store ptr %1, ptr %8, align 8
  store ptr %2, ptr %5, align 8, !tbaa !100
  call void @llvm.memcpy.p0.p0.i64(ptr align 8 %6, ptr align 8 %4, i64 16, i1 false), !tbaa.struct !9
  %9 = load ptr, ptr %5, align 8, !tbaa !100
  %10 = getelementptr inbounds nuw { i64, ptr }, ptr %6, i32 0, i32 0
  %11 = load i64, ptr %10, align 8
  %12 = getelementptr inbounds nuw { i64, ptr }, ptr %6, i32 0, i32 1
  %13 = load ptr, ptr %12, align 8
  %14 = call noundef zeroext i1 @_ZN4absl12lts_2024072216numbers_internal16safe_strtoi_baseIlEEbSt17basic_string_viewIcSt11char_traitsIcEEPT_i(i64 %11, ptr %13, ptr noundef %9, i32 noundef 10)
  ret i1 %14
}

; Function Attrs: mustprogress uwtable
define linkonce_odr noundef nonnull align 8 dereferenceable(16) ptr @_ZNKRSt8optionalISt17basic_string_viewIcSt11char_traitsIcEEE5valueEv(ptr noundef nonnull align 8 dereferenceable(24) %0) #4 comdat align 2 {
  %2 = alloca ptr, align 8
  store ptr %0, ptr %2, align 8, !tbaa !98
  %3 = load ptr, ptr %2, align 8
  %4 = call noundef zeroext i1 @_ZNKSt19_Optional_base_implISt17basic_string_viewIcSt11char_traitsIcEESt14_Optional_baseIS3_Lb1ELb1EEE13_M_is_engagedEv(ptr noundef nonnull align 1 dereferenceable(1) %3) #3
  br i1 %4, label %5, label %7

5:                                                ; preds = %1
  %6 = call noundef nonnull align 8 dereferenceable(16) ptr @_ZNKSt19_Optional_base_implISt17basic_string_viewIcSt11char_traitsIcEESt14_Optional_baseIS3_Lb1ELb1EEE6_M_getEv(ptr noundef nonnull align 1 dereferenceable(1) %3) #3
  ret ptr %6

7:                                                ; preds = %1
  call void @_ZSt27__throw_bad_optional_accessv() #22
  unreachable
}

; Function Attrs: mustprogress nounwind uwtable
define linkonce_odr noundef zeroext i1 @_ZNKSt8optionalISt17basic_string_viewIcSt11char_traitsIcEEE9has_valueEv(ptr noundef nonnull align 8 dereferenceable(24) %0) #7 comdat align 2 {
  %2 = alloca ptr, align 8
  store ptr %0, ptr %2, align 8, !tbaa !98
  %3 = load ptr, ptr %2, align 8
  %4 = call noundef zeroext i1 @_ZNKSt19_Optional_base_implISt17basic_string_viewIcSt11char_traitsIcEESt14_Optional_baseIS3_Lb1ELb1EEE13_M_is_engagedEv(ptr noundef nonnull align 1 dereferenceable(1) %3) #3
  ret i1 %4
}

; Function Attrs: mustprogress uwtable
define noundef zeroext i1 @_ZNK9grpc_core13HeaderMatcher5MatchERKSt8optionalISt17basic_string_viewIcSt11char_traitsIcEEE(ptr noundef nonnull align 8 dereferenceable(114) %0, ptr noundef nonnull align 8 dereferenceable(24) %1) #4 align 2 {
  %3 = alloca i1, align 1
  %4 = alloca ptr, align 8
  %5 = alloca ptr, align 8
  %6 = alloca i8, align 1
  %7 = alloca i32, align 4
  %8 = alloca i64, align 8
  %9 = alloca %"class.std::basic_string_view", align 8
  %10 = alloca %"class.std::basic_string_view", align 8
  store ptr %0, ptr %4, align 8, !tbaa !85
  store ptr %1, ptr %5, align 8, !tbaa !98
  %11 = load ptr, ptr %4, align 8
  call void @llvm.lifetime.start.p0(i64 1, ptr %6) #3
  %12 = getelementptr inbounds nuw %"class.grpc_core::HeaderMatcher", ptr %11, i32 0, i32 1
  %13 = load i32, ptr %12, align 8, !tbaa !92
  %14 = icmp eq i32 %13, 6
  br i1 %14, label %15, label %25

15:                                               ; preds = %2
  %16 = load ptr, ptr %5, align 8, !tbaa !98
  %17 = call noundef zeroext i1 @_ZNKSt8optionalISt17basic_string_viewIcSt11char_traitsIcEEE9has_valueEv(ptr noundef nonnull align 8 dereferenceable(24) %16) #3
  %18 = zext i1 %17 to i32
  %19 = getelementptr inbounds nuw %"class.grpc_core::HeaderMatcher", ptr %11, i32 0, i32 6
  %20 = load i8, ptr %19, align 8, !tbaa !97, !range !15, !noundef !16
  %21 = trunc i8 %20 to i1
  %22 = zext i1 %21 to i32
  %23 = icmp eq i32 %18, %22
  %24 = zext i1 %23 to i8
  store i8 %24, ptr %6, align 1, !tbaa !7
  br label %66

25:                                               ; preds = %2
  %26 = load ptr, ptr %5, align 8, !tbaa !98
  %27 = call noundef zeroext i1 @_ZNKSt8optionalISt17basic_string_viewIcSt11char_traitsIcEEE9has_valueEv(ptr noundef nonnull align 8 dereferenceable(24) %26) #3
  br i1 %27, label %29, label %28

28:                                               ; preds = %25
  store i1 false, ptr %3, align 1
  store i32 1, ptr %7, align 4
  br label %75

29:                                               ; preds = %25
  %30 = getelementptr inbounds nuw %"class.grpc_core::HeaderMatcher", ptr %11, i32 0, i32 1
  %31 = load i32, ptr %30, align 8, !tbaa !92
  %32 = icmp eq i32 %31, 5
  br i1 %32, label %33, label %54

33:                                               ; preds = %29
  call void @llvm.lifetime.start.p0(i64 8, ptr %8) #3
  %34 = load ptr, ptr %5, align 8, !tbaa !98
  %35 = call noundef nonnull align 8 dereferenceable(16) ptr @_ZNKRSt8optionalISt17basic_string_viewIcSt11char_traitsIcEEE5valueEv(ptr noundef nonnull align 8 dereferenceable(24) %34)
  call void @llvm.memcpy.p0.p0.i64(ptr align 8 %9, ptr align 8 %35, i64 16, i1 false), !tbaa.struct !9
  %36 = getelementptr inbounds nuw { i64, ptr }, ptr %9, i32 0, i32 0
  %37 = load i64, ptr %36, align 8
  %38 = getelementptr inbounds nuw { i64, ptr }, ptr %9, i32 0, i32 1
  %39 = load ptr, ptr %38, align 8
  %40 = call noundef zeroext i1 @_ZN4absl12lts_2024072210SimpleAtoiIlEEbSt17basic_string_viewIcSt11char_traitsIcEEPT_(i64 %37, ptr %39, ptr noundef %8)
  br i1 %40, label %41, label %51

41:                                               ; preds = %33
  %42 = load i64, ptr %8, align 8, !tbaa !10
  %43 = getelementptr inbounds nuw %"class.grpc_core::HeaderMatcher", ptr %11, i32 0, i32 4
  %44 = load i64, ptr %43, align 8, !tbaa !95
  %45 = icmp sge i64 %42, %44
  br i1 %45, label %46, label %51

46:                                               ; preds = %41
  %47 = load i64, ptr %8, align 8, !tbaa !10
  %48 = getelementptr inbounds nuw %"class.grpc_core::HeaderMatcher", ptr %11, i32 0, i32 5
  %49 = load i64, ptr %48, align 8, !tbaa !96
  %50 = icmp slt i64 %47, %49
  br label %51

51:                                               ; preds = %46, %41, %33
  %52 = phi i1 [ false, %41 ], [ false, %33 ], [ %50, %46 ]
  %53 = zext i1 %52 to i8
  store i8 %53, ptr %6, align 1, !tbaa !7
  call void @llvm.lifetime.end.p0(i64 8, ptr %8) #3
  br label %64

54:                                               ; preds = %29
  %55 = getelementptr inbounds nuw %"class.grpc_core::HeaderMatcher", ptr %11, i32 0, i32 3
  %56 = load ptr, ptr %5, align 8, !tbaa !98
  %57 = call noundef nonnull align 8 dereferenceable(16) ptr @_ZNKRSt8optionalISt17basic_string_viewIcSt11char_traitsIcEEE5valueEv(ptr noundef nonnull align 8 dereferenceable(24) %56)
  call void @llvm.memcpy.p0.p0.i64(ptr align 8 %10, ptr align 8 %57, i64 16, i1 false), !tbaa.struct !9
  %58 = getelementptr inbounds nuw { i64, ptr }, ptr %10, i32 0, i32 0
  %59 = load i64, ptr %58, align 8
  %60 = getelementptr inbounds nuw { i64, ptr }, ptr %10, i32 0, i32 1
  %61 = load ptr, ptr %60, align 8
  %62 = call noundef zeroext i1 @_ZNK9grpc_core13StringMatcher5MatchESt17basic_string_viewIcSt11char_traitsIcEE(ptr noundef nonnull align 8 dereferenceable(49) %55, i64 %59, ptr %61)
  %63 = zext i1 %62 to i8
  store i8 %63, ptr %6, align 1, !tbaa !7
  br label %64

64:                                               ; preds = %54, %51
  br label %65

65:                                               ; preds = %64
  br label %66

66:                                               ; preds = %65, %15
  %67 = load i8, ptr %6, align 1, !tbaa !7, !range !15, !noundef !16
  %68 = trunc i8 %67 to i1
  %69 = zext i1 %68 to i32
  %70 = getelementptr inbounds nuw %"class.grpc_core::HeaderMatcher", ptr %11, i32 0, i32 7
  %71 = load i8, ptr %70, align 1, !tbaa !94, !range !15, !noundef !16
  %72 = trunc i8 %71 to i1
  %73 = zext i1 %72 to i32
  %74 = icmp ne i32 %69, %73
  store i1 %74, ptr %3, align 1
  store i32 1, ptr %7, align 4
  br label %75

75:                                               ; preds = %66, %28
  call void @llvm.lifetime.end.p0(i64 1, ptr %6) #3
  %76 = load i1, ptr %3, align 1
  ret i1 %76
}