; Function Attrs: mustprogress uwtable
define noundef zeroext i1 @_ZNK9grpc_core13HeaderMatcher5MatchERKSt8optionalISt17basic_string_viewIcSt11char_traitsIcEEE(ptr noundef nonnull readonly align 8 captures(none) dereferenceable(114) %0, ptr noundef nonnull readonly align 8 captures(none) dereferenceable(24) %1) local_unnamed_addr #3 align 2 {
  %3 = alloca i64, align 8
  %4 = getelementptr inbounds nuw i8, ptr %0, i64 32
  %5 = load i32, ptr %4, align 8, !tbaa !82
  %6 = icmp eq i32 %5, 6
  %7 = getelementptr inbounds nuw i8, ptr %1, i64 16
  %8 = load i8, ptr %7, align 8, !tbaa !89, !range !48, !noundef !49
  br i1 %6, label %9, label %13

9:                                                ; preds = %2
  %10 = getelementptr inbounds nuw i8, ptr %0, i64 112
  %11 = load i8, ptr %10, align 8, !tbaa !88, !range !48, !noundef !49
  %12 = icmp eq i8 %11, %8
  br label %27

13:                                               ; preds = %2
  %14 = trunc nuw i8 %8 to i1
  br i1 %14, label %15, label %32

15:                                               ; preds = %13
  %16 = icmp eq i32 %5, 5
  br i1 %16, label %_ZNKRSt8optionalISt17basic_string_viewIcSt11char_traitsIcEEE5valueEv.exit, label %_ZNKRSt8optionalISt17basic_string_viewIcSt11char_traitsIcEEE5valueEv.exit10

_ZNKRSt8optionalISt17basic_string_viewIcSt11char_traitsIcEEE5valueEv.exit: ; preds = %15
  %.sroa.01.0.copyload = load i64, ptr %1, align 8, !tbaa !9
  %.sroa.22.0..sroa_idx = getelementptr inbounds nuw i8, ptr %1, i64 8
  %.sroa.22.0.copyload = load ptr, ptr %.sroa.22.0..sroa_idx, align 8, !tbaa !91
  call void @llvm.lifetime.start.p0(i64 8, ptr nonnull %3) #20
  %17 = call noundef zeroext i1 @_ZN4absl12lts_2024072216numbers_internal17safe_strto64_baseESt17basic_string_viewIcSt11char_traitsIcEEPli(i64 %.sroa.01.0.copyload, ptr %.sroa.22.0.copyload, ptr noundef nonnull %3, i32 noundef 10)
  %18 = load i64, ptr %3, align 8, !tbaa !9
  call void @llvm.lifetime.end.p0(i64 8, ptr nonnull %3) #20
  %19 = getelementptr inbounds nuw i8, ptr %0, i64 96
  %20 = load i64, ptr %19, align 8
  %.not = icmp sge i64 %18, %20
  %or.cond.not = select i1 %17, i1 %.not, i1 false
  br i1 %or.cond.not, label %21, label %27

21:                                               ; preds = %_ZNKRSt8optionalISt17basic_string_viewIcSt11char_traitsIcEEE5valueEv.exit
  %22 = getelementptr inbounds nuw i8, ptr %0, i64 104
  %23 = load i64, ptr %22, align 8, !tbaa !87
  %24 = icmp slt i64 %18, %23
  br label %27

_ZNKRSt8optionalISt17basic_string_viewIcSt11char_traitsIcEEE5valueEv.exit10: ; preds = %15
  %25 = getelementptr inbounds nuw i8, ptr %0, i64 40
  %.sroa.0.0.copyload = load i64, ptr %1, align 8, !tbaa !9
  %.sroa.2.0..sroa_idx = getelementptr inbounds nuw i8, ptr %1, i64 8
  %.sroa.2.0.copyload = load ptr, ptr %.sroa.2.0..sroa_idx, align 8, !tbaa !91
  %26 = tail call noundef zeroext i1 @_ZNK9grpc_core13StringMatcher5MatchESt17basic_string_viewIcSt11char_traitsIcEE(ptr noundef nonnull align 8 dereferenceable(49) %25, i64 %.sroa.0.0.copyload, ptr %.sroa.2.0.copyload)
  br label %27

27:                                               ; preds = %_ZNKRSt8optionalISt17basic_string_viewIcSt11char_traitsIcEEE5valueEv.exit, %21, %_ZNKRSt8optionalISt17basic_string_viewIcSt11char_traitsIcEEE5valueEv.exit10, %9
  %.08 = phi i1 [ %12, %9 ], [ %26, %_ZNKRSt8optionalISt17basic_string_viewIcSt11char_traitsIcEEE5valueEv.exit10 ], [ false, %_ZNKRSt8optionalISt17basic_string_viewIcSt11char_traitsIcEEE5valueEv.exit ], [ %24, %21 ]
  %28 = getelementptr inbounds nuw i8, ptr %0, i64 113
  %29 = load i8, ptr %28, align 1, !tbaa !85, !range !48, !noundef !49
  %30 = zext i1 %.08 to i8
  %31 = icmp ne i8 %29, %30
  br label %32

32:                                               ; preds = %13, %27
  %.0 = phi i1 [ %31, %27 ], [ false, %13 ]
  ret i1 %.0
}